target datalayout = "e-m:e-p270:32:32-p271:32:32-p272:64:64-i64:64-i128:128-f80:128-n8:16:32:64-S128"
target triple = "x86_64-pc-linux-gnu"

%struct.tng_trajectory = type { ptr, ptr, i64, ptr, ptr, ptr, ptr, ptr, ptr, i8, i8, ptr, ptr, ptr, ptr, ptr, ptr, ptr, ptr, ptr, i64, i64, i8, i64, i64, i64, double, i64, ptr, ptr, i64, i64, i64, i64, i64, %struct.tng_trajectory_frame_set, i64, i64, i64, i32, ptr, i32, ptr, ptr, ptr, double }
%struct.tng_trajectory_frame_set = type { i64, ptr, i64, i64, i64, i64, ptr, i64, i64, i64, i64, i64, i64, i64, double, i32, ptr, i32, ptr }

; Function Attrs: nounwind uwtable
define i32 @tng_num_particles_get(ptr noundef %0, ptr noundef %1) #0 {
  %3 = alloca ptr, align 8
  %4 = alloca ptr, align 8
  store ptr %0, ptr %3, align 8, !tbaa !3
  store ptr %1, ptr %4, align 8, !tbaa !47
  %5 = load ptr, ptr %3, align 8, !tbaa !3
  %6 = getelementptr inbounds nuw %struct.tng_trajectory, ptr %5, i32 0, i32 22
  %7 = load i8, ptr %6, align 8, !tbaa !64
  %8 = sext i8 %7 to i32
  %9 = icmp eq i32 %8, 0
  br i1 %9, label %10, label %15

10:                                               ; preds = %2
  %11 = load ptr, ptr %3, align 8, !tbaa !3
  %12 = getelementptr inbounds nuw %struct.tng_trajectory, ptr %11, i32 0, i32 30
  %13 = load i64, ptr %12, align 8, !tbaa !65
  %14 = load ptr, ptr %4, align 8, !tbaa !47
  store i64 %13, ptr %14, align 8, !tbaa !26
  br label %21

15:                                               ; preds = %2
  %16 = load ptr, ptr %3, align 8, !tbaa !3
  %17 = getelementptr inbounds nuw %struct.tng_trajectory, ptr %16, i32 0, i32 35
  %18 = getelementptr inbounds nuw %struct.tng_trajectory_frame_set, ptr %17, i32 0, i32 7
  %19 = load i64, ptr %18, align 8, !tbaa !67
  %20 = load ptr, ptr %4, align 8, !tbaa !47
  store i64 %19, ptr %20, align 8, !tbaa !26
  br label %21

21:                                               ; preds = %15, %10
  ret i32 0
}