; Function Attrs: mustprogress nofree norecurse nosync nounwind willreturn memory(argmem: readwrite) uwtable
define noundef i32 @tng_num_particles_get(ptr noundef readonly captures(none) %0, ptr noundef writeonly captures(none) initializes((0, 8)) %1) local_unnamed_addr #0 {
  %3 = getelementptr inbounds nuw i8, ptr %0, i64 168
  %4 = load i8, ptr %3, align 8, !tbaa !47
  %5 = icmp eq i8 %4, 0
  %storemerge.in.v = select i1 %5, i64 232, i64 328
  %storemerge.in = getelementptr inbounds nuw i8, ptr %0, i64 %storemerge.in.v
  %storemerge = load i64, ptr %storemerge.in, align 8, !tbaa !38
  store i64 %storemerge, ptr %1, align 8, !tbaa !38
  ret i32 0
}